; ModuleID = '33/2164.c'
source_filename = "33/2164.c"
target datalayout = "e-m:e-p270:32:32-p271:32:32-p272:64:64-i64:64-f80:128-n8:16:32:64-S128"
target triple = "x86_64-pc-linux-gnu"

@.str = private unnamed_addr constant [3 x i8] c"%d\00", align 1
@.str.1 = private unnamed_addr constant [3 x i8] c"%s\00", align 1
@.str.2 = private unnamed_addr constant [4 x i8] c"%s\0A\00", align 1

; Function Attrs: noinline nounwind uwtable
define dso_local i32 @main() #0 {
  %1 = alloca i32, align 4
  %2 = alloca i32, align 4
  %3 = alloca i32, align 4
  %4 = alloca [1000 x i32], align 16
  %5 = alloca i32, align 4
  %6 = alloca [1000 x [256 x i8]], align 16
  store i32 0, i32* %1, align 4
  %7 = call i32 (i8*, ...) @__isoc99_scanf(i8* getelementptr inbounds ([3 x i8], [3 x i8]* @.str, i64 0, i64 0), i32* %2)
  store i32 0, i32* %3, align 4
  br label %8

8:                                                ; preds = %27, %0
  %9 = load i32, i32* %3, align 4
  %10 = load i32, i32* %2, align 4
  %11 = icmp slt i32 %9, %10
  br i1 %11, label %12, label %30

12:                                               ; preds = %8
  %13 = load i32, i32* %3, align 4
  %14 = sext i32 %13 to i64
  %15 = getelementptr inbounds [1000 x [256 x i8]], [1000 x [256 x i8]]* %6, i64 0, i64 %14
  %16 = getelementptr inbounds [256 x i8], [256 x i8]* %15, i64 0, i64 0
  %17 = call i32 (i8*, ...) @__isoc99_scanf(i8* getelementptr inbounds ([3 x i8], [3 x i8]* @.str.1, i64 0, i64 0), i8* %16)
  %18 = load i32, i32* %3, align 4
  %19 = sext i32 %18 to i64
  %20 = getelementptr inbounds [1000 x [256 x i8]], [1000 x [256 x i8]]* %6, i64 0, i64 %19
  %21 = getelementptr inbounds [256 x i8], [256 x i8]* %20, i64 0, i64 0
  %22 = call i64 @strlen(i8* %21) #3
  %23 = trunc i64 %22 to i32
  %24 = load i32, i32* %3, align 4
  %25 = sext i32 %24 to i64
  %26 = getelementptr inbounds [1000 x i32], [1000 x i32]* %4, i64 0, i64 %25
  store i32 %23, i32* %26, align 4
  br label %27

27:                                               ; preds = %12
  %28 = load i32, i32* %3, align 4
  %29 = add nsw i32 %28, 1
  store i32 %29, i32* %3, align 4
  br label %8

30:                                               ; preds = %8
  store i32 0, i32* %3, align 4
  br label %31

31:                                               ; preds = %119, %30
  %32 = load i32, i32* %3, align 4
  %33 = load i32, i32* %2, align 4
  %34 = icmp slt i32 %32, %33
  br i1 %34, label %35, label %122

35:                                               ; preds = %31
  store i32 0, i32* %5, align 4
  br label %36

36:                                               ; preds = %115, %35
  %37 = load i32, i32* %5, align 4
  %38 = load i32, i32* %3, align 4
  %39 = sext i32 %38 to i64
  %40 = getelementptr inbounds [1000 x i32], [1000 x i32]* %4, i64 0, i64 %39
  %41 = load i32, i32* %40, align 4
  %42 = icmp slt i32 %37, %41
  br i1 %42, label %43, label %118

43:                                               ; preds = %36
  %44 = load i32, i32* %3, align 4
  %45 = sext i32 %44 to i64
  %46 = getelementptr inbounds [1000 x [256 x i8]], [1000 x [256 x i8]]* %6, i64 0, i64 %45
  %47 = load i32, i32* %5, align 4
  %48 = sext i32 %47 to i64
  %49 = getelementptr inbounds [256 x i8], [256 x i8]* %46, i64 0, i64 %48
  %50 = load i8, i8* %49, align 1
  %51 = sext i8 %50 to i32
  %52 = icmp eq i32 %51, 65
  br i1 %52, label %53, label %60

53:                                               ; preds = %43
  %54 = load i32, i32* %3, align 4
  %55 = sext i32 %54 to i64
  %56 = getelementptr inbounds [1000 x [256 x i8]], [1000 x [256 x i8]]* %6, i64 0, i64 %55
  %57 = load i32, i32* %5, align 4
  %58 = sext i32 %57 to i64
  %59 = getelementptr inbounds [256 x i8], [256 x i8]* %56, i64 0, i64 %58
  store i8 84, i8* %59, align 1
  br label %114

60:                                               ; preds = %43
  %61 = load i32, i32* %3, align 4
  %62 = sext i32 %61 to i64
  %63 = getelementptr inbounds [1000 x [256 x i8]], [1000 x [256 x i8]]* %6, i64 0, i64 %62
  %64 = load i32, i32* %5, align 4
  %65 = sext i32 %64 to i64
  %66 = getelementptr inbounds [256 x i8], [256 x i8]* %63, i64 0, i64 %65
  %67 = load i8, i8* %66, align 1
  %68 = sext i8 %67 to i32
  %69 = icmp eq i32 %68, 84
  br i1 %69, label %70, label %77

70:                                               ; preds = %60
  %71 = load i32, i32* %3, align 4
  %72 = sext i32 %71 to i64
  %73 = getelementptr inbounds [1000 x [256 x i8]], [1000 x [256 x i8]]* %6, i64 0, i64 %72
  %74 = load i32, i32* %5, align 4
  %75 = sext i32 %74 to i64
  %76 = getelementptr inbounds [256 x i8], [256 x i8]* %73, i64 0, i64 %75
  store i8 65, i8* %76, align 1
  br label %113

77:                                               ; preds = %60
  %78 = load i32, i32* %3, align 4
  %79 = sext i32 %78 to i64
  %80 = getelementptr inbounds [1000 x [256 x i8]], [1000 x [256 x i8]]* %6, i64 0, i64 %79
  %81 = load i32, i32* %5, align 4
  %82 = sext i32 %81 to i64
  %83 = getelementptr inbounds [256 x i8], [256 x i8]* %80, i64 0, i64 %82
  %84 = load i8, i8* %83, align 1
  %85 = sext i8 %84 to i32
  %86 = icmp eq i32 %85, 67
  br i1 %86, label %87, label %94

87:                                               ; preds = %77
  %88 = load i32, i32* %3, align 4
  %89 = sext i32 %88 to i64
  %90 = getelementptr inbounds [1000 x [256 x i8]], [1000 x [256 x i8]]* %6, i64 0, i64 %89
  %91 = load i32, i32* %5, align 4
  %92 = sext i32 %91 to i64
  %93 = getelementptr inbounds [256 x i8], [256 x i8]* %90, i64 0, i64 %92
  store i8 71, i8* %93, align 1
  br label %112

94:                                               ; preds = %77
  %95 = load i32, i32* %3, align 4
  %96 = sext i32 %95 to i64
  %97 = getelementptr inbounds [1000 x [256 x i8]], [1000 x [256 x i8]]* %6, i64 0, i64 %96
  %98 = load i32, i32* %5, align 4
  %99 = sext i32 %98 to i64
  %100 = getelementptr inbounds [256 x i8], [256 x i8]* %97, i64 0, i64 %99
  %101 = load i8, i8* %100, align 1
  %102 = sext i8 %101 to i32
  %103 = icmp eq i32 %102, 71
  br i1 %103, label %104, label %111

104:                                              ; preds = %94
  %105 = load i32, i32* %3, align 4
  %106 = sext i32 %105 to i64
  %107 = getelementptr inbounds [1000 x [256 x i8]], [1000 x [256 x i8]]* %6, i64 0, i64 %106
  %108 = load i32, i32* %5, align 4
  %109 = sext i32 %108 to i64
  %110 = getelementptr inbounds [256 x i8], [256 x i8]* %107, i64 0, i64 %109
  store i8 67, i8* %110, align 1
  br label %111

111:                                              ; preds = %104, %94
  br label %112

112:                                              ; preds = %111, %87
  br label %113

113:                                              ; preds = %112, %70
  br label %114

114:                                              ; preds = %113, %53
  br label %115

115:                                              ; preds = %114
  %116 = load i32, i32* %5, align 4
  %117 = add nsw i32 %116, 1
  store i32 %117, i32* %5, align 4
  br label %36

118:                                              ; preds = %36
  br label %119

119:                                              ; preds = %118
  %120 = load i32, i32* %3, align 4
  %121 = add nsw i32 %120, 1
  store i32 %121, i32* %3, align 4
  br label %31

122:                                              ; preds = %31
  store i32 0, i32* %3, align 4
  br label %123

123:                                              ; preds = %133, %122
  %124 = load i32, i32* %3, align 4
  %125 = load i32, i32* %2, align 4
  %126 = icmp slt i32 %124, %125
  br i1 %126, label %127, label %136

127:                                              ; preds = %123
  %128 = load i32, i32* %3, align 4
  %129 = sext i32 %128 to i64
  %130 = getelementptr inbounds [1000 x [256 x i8]], [1000 x [256 x i8]]* %6, i64 0, i64 %129
  %131 = getelementptr inbounds [256 x i8], [256 x i8]* %130, i64 0, i64 0
  %132 = call i32 (i8*, ...) @printf(i8* getelementptr inbounds ([4 x i8], [4 x i8]* @.str.2, i64 0, i64 0), i8* %131)
  br label %133

133:                                              ; preds = %127
  %134 = load i32, i32* %3, align 4
  %135 = add nsw i32 %134, 1
  store i32 %135, i32* %3, align 4
  br label %123

136:                                              ; preds = %123
  ret i32 0
}

declare dso_local i32 @__isoc99_scanf(i8*, ...) #1

; Function Attrs: nounwind readonly
declare dso_local i64 @strlen(i8*) #2

declare dso_local i32 @printf(i8*, ...) #1


!llvm.module.flags = !{!0}
!llvm.ident = !{!1}

!0 = !{i32 1, !"wchar_size", i32 4}
!1 = !{!"clang version 10.0.0-4ubuntu1 "}
